target datalayout = "e-m:e-p270:32:32-p271:32:32-p272:64:64-i64:64-i128:128-f80:128-n8:16:32:64-S128"
target triple = "x86_64-pc-linux-gnu"

@.str.24 = private unnamed_addr constant [10 x i8] c"gre.proto\00", align 1
@proto_register_gre.ett = internal global [6 x ptr] [ptr @ett_gre, ptr @ett_gre_flags, ptr @ett_gre_routing, ptr @ett_gre_wccp2_redirect_header, ptr @ett_3gpp2_attribs, ptr @ett_3gpp2_attr], align 16
@.str.124 = private unnamed_addr constant [30 x i8] c"Generic Routing Encapsulation\00", align 1
@.str.125 = private unnamed_addr constant [4 x i8] c"GRE\00", align 1
@.str.126 = private unnamed_addr constant [4 x i8] c"gre\00", align 1
@proto_gre = internal global i32 0, align 4
@gre_handle = internal global ptr null, align 8
@gre_cap_handle = internal global ptr null, align 8
@.str.127 = private unnamed_addr constant [18 x i8] c"GRE protocol type\00", align 1
@gre_dissector_table = internal global ptr null, align 8
@.str.128 = private unnamed_addr constant [13 x i8] c"gre.subproto\00", align 1
@gre_subdissector_table = internal global ptr null, align 8

; Function Attrs: null_pointer_is_valid sspstrong uwtable
define hidden void @proto_register_gre() #0 {
  %1 = alloca ptr, align 8
  call void @llvm.lifetime.start.p0(i64 8, ptr %1) #4
  %2 = call i32 @proto_register_protocol(ptr noundef @.str.124, ptr noundef @.str.125, ptr noundef @.str.126)
  store i32 %2, ptr @proto_gre, align 4
  %3 = load i32, ptr @proto_gre, align 4
  %4 = call ptr @register_dissector(ptr noundef @.str.126, ptr noundef @dissect_gre, i32 noundef %3)
  store ptr %4, ptr @gre_handle, align 8
  %5 = load i32, ptr @proto_gre, align 4
  %6 = call ptr @register_capture_dissector(ptr noundef @.str.126, ptr noundef @capture_gre, i32 noundef %5)
  store ptr %6, ptr @gre_cap_handle, align 8
  %7 = load i32, ptr @proto_gre, align 4
  call void @proto_register_field_array(i32 noundef %7, ptr noundef @proto_register_gre.hf, i32 noundef 40)
  call void @proto_register_subtree_array(ptr noundef @proto_register_gre.ett, i32 noundef 6)
  %8 = load i32, ptr @proto_gre, align 4
  %9 = call ptr @expert_register_protocol(i32 noundef %8)
  store ptr %9, ptr %1, align 8
  %10 = load ptr, ptr %1, align 8
  call void @expert_register_field_array(ptr noundef %10, ptr noundef @proto_register_gre.ei, i32 noundef 1)
  %11 = load i32, ptr @proto_gre, align 4
  %12 = call ptr @register_dissector_table(ptr noundef @.str.24, ptr noundef @.str.127, i32 noundef %11, i32 noundef 5, i32 noundef 2)
  store ptr %12, ptr @gre_dissector_table, align 8
  %13 = load i32, ptr @proto_gre, align 4
  %14 = call ptr @register_decode_as_next_proto(i32 noundef %13, ptr noundef @.str.128, ptr noundef @.str.127, ptr noundef @gre_prompt)
  store ptr %14, ptr @gre_subdissector_table, align 8
  call void @llvm.lifetime.end.p0(i64 8, ptr %1) #4
  ret void
}