; Function Attrs: null_pointer_is_valid sspstrong uwtable
define hidden void @proto_register_gre() local_unnamed_addr #0 {
  %1 = tail call i32 @proto_register_protocol(ptr noundef nonnull @.str.124, ptr noundef nonnull @.str.125, ptr noundef nonnull @.str.126)
  store i32 %1, ptr @proto_gre, align 4
  %2 = tail call ptr @register_dissector(ptr noundef nonnull @.str.126, ptr noundef nonnull @dissect_gre, i32 noundef %1)
  store ptr %2, ptr @gre_handle, align 8
  %3 = load i32, ptr @proto_gre, align 4
  %4 = tail call ptr @register_capture_dissector(ptr noundef nonnull @.str.126, ptr noundef nonnull @capture_gre, i32 noundef %3)
  store ptr %4, ptr @gre_cap_handle, align 8
  %5 = load i32, ptr @proto_gre, align 4
  tail call void @proto_register_field_array(i32 noundef %5, ptr noundef nonnull @proto_register_gre.hf, i32 noundef 40)
  tail call void @proto_register_subtree_array(ptr noundef nonnull @proto_register_gre.ett, i32 noundef 6)
  %6 = load i32, ptr @proto_gre, align 4
  %7 = tail call ptr @expert_register_protocol(i32 noundef %6)
  tail call void @expert_register_field_array(ptr noundef %7, ptr noundef nonnull @proto_register_gre.ei, i32 noundef 1)
  %8 = load i32, ptr @proto_gre, align 4
  %9 = tail call ptr @register_dissector_table(ptr noundef nonnull @.str.24, ptr noundef nonnull @.str.127, i32 noundef %8, i32 noundef 5, i32 noundef 2)
  store ptr %9, ptr @gre_dissector_table, align 8
  %10 = load i32, ptr @proto_gre, align 4
  %11 = tail call ptr @register_decode_as_next_proto(i32 noundef %10, ptr noundef nonnull @.str.128, ptr noundef nonnull @.str.127, ptr noundef nonnull @gre_prompt)
  store ptr %11, ptr @gre_subdissector_table, align 8
  ret void
}